ccopy_reg
_reconstructor
p0
(cnn
NeuralNet
p1
c__builtin__
object
p2
Ntp3
Rp4
(dp5
S'cInputs'
p6
I36
sS'listLayer'
p7
(lp8
g0
(cnn
NeuralNetLayer
p9
g2
Ntp10
Rp11
(dp12
g6
I36
sS'listPcpt'
p13
(lp14
g0
(cnn
Perceptron
p15
g2
Ntp16
Rp17
(dp18
S'ix'
p19
I0
sS'dblW0'
p20
F-62.545139690493578
sS'listDblW'
p21
(lp22
F7.8480584992732849
aF5.2169573464264847
aF4.8435373897556229
aF7.673770482106498
aF-14.513087415840003
aF-9.7776074672421345
aF7.9855369722052592
aF9.3616466573828383
aF5.3976697426384659
aF-0.95601826920116872
aF0.63582936343529495
aF-0.88996805009814384
aF7.7134754538477273
aF11.328505954855041
aF4.5599489150716463
aF13.542357716218314
aF0.91862861349866709
aF-7.664457427812648
aF7.8861107235483789
aF-15.408899915614002
aF-11.924002762207634
aF9.5533508181233611
aF-14.12348195009435
aF-12.901128751928772
aF0.35732587825425094
aF0.57252088789481992
aF0.308095047152318
aF1.295159709400207
aF0.45563327870428616
aF-1.8438590790874436
aF8.2648754340476298
aF-2.2742942713034022
aF-10.550640088434642
aF10.912026060438802
aF0.002528005060896182
aF-12.318876981674418
asbasbasb.